target datalayout = "e-m:e-p270:32:32-p271:32:32-p272:64:64-i64:64-i128:128-f80:128-n8:16:32:64-S128"
target triple = "x86_64-unknown-linux-gnu"

@.str.83 = private unnamed_addr constant [28 x i8] c"invalid hex escape sequence\00", align 1

; Function Attrs: nounwind uwtable
define internal i32 @from_hex(i8 noundef signext %c) #4 {
entry:
  %retval = alloca i32, align 4
  %c.addr = alloca i8, align 1
  store i8 %c, ptr %c.addr, align 1
  %0 = load i8, ptr %c.addr, align 1
  %conv = sext i8 %0 to i32
  %cmp = icmp sle i32 48, %conv
  br i1 %cmp, label %land.lhs.true, label %if.end

land.lhs.true:                                    ; preds = %entry
  %1 = load i8, ptr %c.addr, align 1
  %conv2 = sext i8 %1 to i32
  %cmp3 = icmp sle i32 %conv2, 57
  br i1 %cmp3, label %if.then, label %if.end

if.then:                                          ; preds = %land.lhs.true
  %2 = load i8, ptr %c.addr, align 1
  %conv5 = sext i8 %2 to i32
  %sub = sub nsw i32 %conv5, 48
  store i32 %sub, ptr %retval, align 4
  br label %return

if.end:                                           ; preds = %land.lhs.true, %entry
  %3 = load i8, ptr %c.addr, align 1
  %conv6 = sext i8 %3 to i32
  %cmp7 = icmp sle i32 97, %conv6
  br i1 %cmp7, label %land.lhs.true9, label %if.end16

land.lhs.true9:                                   ; preds = %if.end
  %4 = load i8, ptr %c.addr, align 1
  %conv10 = sext i8 %4 to i32
  %cmp11 = icmp sle i32 %conv10, 102
  br i1 %cmp11, label %if.then13, label %if.end16

if.then13:                                        ; preds = %land.lhs.true9
  %5 = load i8, ptr %c.addr, align 1
  %conv14 = sext i8 %5 to i32
  %sub15 = sub nsw i32 %conv14, 97
  %add = add nsw i32 %sub15, 10
  store i32 %add, ptr %retval, align 4
  br label %return

if.end16:                                         ; preds = %land.lhs.true9, %if.end
  %6 = load i8, ptr %c.addr, align 1
  %conv17 = sext i8 %6 to i32
  %sub18 = sub nsw i32 %conv17, 65
  %add19 = add nsw i32 %sub18, 10
  store i32 %add19, ptr %retval, align 4
  br label %return

return:                                           ; preds = %if.end16, %if.then13, %if.then
  %7 = load i32, ptr %retval, align 4
  ret i32 %7
}

; Function Attrs: nounwind uwtable
define internal i32 @read_escaped_char(ptr noundef %new_pos, ptr noundef %p) #4 {
entry:
  %retval = alloca i32, align 4
  %new_pos.addr = alloca ptr, align 8
  %p.addr = alloca ptr, align 8
  %c = alloca i32, align 4
  %c41 = alloca i32, align 4
  store ptr %new_pos, ptr %new_pos.addr, align 8
  store ptr %p, ptr %p.addr, align 8
  %0 = load ptr, ptr %p.addr, align 8
  %1 = load i8, ptr %0, align 1
  %conv = sext i8 %1 to i32
  %cmp = icmp sle i32 48, %conv
  br i1 %cmp, label %land.lhs.true, label %if.end31

land.lhs.true:                                    ; preds = %entry
  %2 = load ptr, ptr %p.addr, align 8
  %3 = load i8, ptr %2, align 1
  %conv2 = sext i8 %3 to i32
  %cmp3 = icmp sle i32 %conv2, 55
  br i1 %cmp3, label %if.then, label %if.end31

if.then:                                          ; preds = %land.lhs.true
  %4 = load ptr, ptr %p.addr, align 8
  %incdec.ptr = getelementptr inbounds i8, ptr %4, i32 1
  store ptr %incdec.ptr, ptr %p.addr, align 8
  %5 = load i8, ptr %4, align 1
  %conv5 = sext i8 %5 to i32
  %sub = sub nsw i32 %conv5, 48
  store i32 %sub, ptr %c, align 4
  %6 = load ptr, ptr %p.addr, align 8
  %7 = load i8, ptr %6, align 1
  %conv6 = sext i8 %7 to i32
  %cmp7 = icmp sle i32 48, %conv6
  br i1 %cmp7, label %land.lhs.true9, label %if.end30

land.lhs.true9:                                   ; preds = %if.then
  %8 = load ptr, ptr %p.addr, align 8
  %9 = load i8, ptr %8, align 1
  %conv10 = sext i8 %9 to i32
  %cmp11 = icmp sle i32 %conv10, 55
  br i1 %cmp11, label %if.then13, label %if.end30

if.then13:                                        ; preds = %land.lhs.true9
  %10 = load i32, ptr %c, align 4
  %shl = shl i32 %10, 3
  %11 = load ptr, ptr %p.addr, align 8
  %incdec.ptr14 = getelementptr inbounds i8, ptr %11, i32 1
  store ptr %incdec.ptr14, ptr %p.addr, align 8
  %12 = load i8, ptr %11, align 1
  %conv15 = sext i8 %12 to i32
  %sub16 = sub nsw i32 %conv15, 48
  %add = add nsw i32 %shl, %sub16
  store i32 %add, ptr %c, align 4
  %13 = load ptr, ptr %p.addr, align 8
  %14 = load i8, ptr %13, align 1
  %conv17 = sext i8 %14 to i32
  %cmp18 = icmp sle i32 48, %conv17
  br i1 %cmp18, label %land.lhs.true20, label %if.end

land.lhs.true20:                                  ; preds = %if.then13
  %15 = load ptr, ptr %p.addr, align 8
  %16 = load i8, ptr %15, align 1
  %conv21 = sext i8 %16 to i32
  %cmp22 = icmp sle i32 %conv21, 55
  br i1 %cmp22, label %if.then24, label %if.end

if.then24:                                        ; preds = %land.lhs.true20
  %17 = load i32, ptr %c, align 4
  %shl25 = shl i32 %17, 3
  %18 = load ptr, ptr %p.addr, align 8
  %incdec.ptr26 = getelementptr inbounds i8, ptr %18, i32 1
  store ptr %incdec.ptr26, ptr %p.addr, align 8
  %19 = load i8, ptr %18, align 1
  %conv27 = sext i8 %19 to i32
  %sub28 = sub nsw i32 %conv27, 48
  %add29 = add nsw i32 %shl25, %sub28
  store i32 %add29, ptr %c, align 4
  br label %if.end

if.end:                                           ; preds = %if.then24, %land.lhs.true20, %if.then13
  br label %if.end30

if.end30:                                         ; preds = %if.end, %land.lhs.true9, %if.then
  %20 = load ptr, ptr %p.addr, align 8
  %21 = load ptr, ptr %new_pos.addr, align 8
  store ptr %20, ptr %21, align 8
  %22 = load i32, ptr %c, align 4
  store i32 %22, ptr %retval, align 4
  br label %return

if.end31:                                         ; preds = %land.lhs.true, %entry
  %23 = load ptr, ptr %p.addr, align 8
  %24 = load i8, ptr %23, align 1
  %conv32 = sext i8 %24 to i32
  %cmp33 = icmp eq i32 %conv32, 120
  br i1 %cmp33, label %if.then35, label %if.end53

if.then35:                                        ; preds = %if.end31
  %25 = load ptr, ptr %p.addr, align 8
  %incdec.ptr36 = getelementptr inbounds i8, ptr %25, i32 1
  store ptr %incdec.ptr36, ptr %p.addr, align 8
  %call = call ptr @__ctype_b_loc() #16
  %26 = load ptr, ptr %call, align 8
  %27 = load ptr, ptr %p.addr, align 8
  %28 = load i8, ptr %27, align 1
  %conv37 = sext i8 %28 to i32
  %idxprom = sext i32 %conv37 to i64
  %arrayidx = getelementptr inbounds i16, ptr %26, i64 %idxprom
  %29 = load i16, ptr %arrayidx, align 2
  %conv38 = zext i16 %29 to i32
  %and = and i32 %conv38, 4096
  %tobool = icmp ne i32 %and, 0
  br i1 %tobool, label %if.end40, label %if.then39

if.then39:                                        ; preds = %if.then35
  %30 = load ptr, ptr %p.addr, align 8
  call void (ptr, ptr, ...) @error_at(ptr noundef %30, ptr noundef @.str.83) #13
  unreachable

if.end40:                                         ; preds = %if.then35
  store i32 0, ptr %c41, align 4
  br label %for.cond

for.cond:                                         ; preds = %for.inc, %if.end40
  %call42 = call ptr @__ctype_b_loc() #16
  %31 = load ptr, ptr %call42, align 8
  %32 = load ptr, ptr %p.addr, align 8
  %33 = load i8, ptr %32, align 1
  %conv43 = sext i8 %33 to i32
  %idxprom44 = sext i32 %conv43 to i64
  %arrayidx45 = getelementptr inbounds i16, ptr %31, i64 %idxprom44
  %34 = load i16, ptr %arrayidx45, align 2
  %conv46 = zext i16 %34 to i32
  %and47 = and i32 %conv46, 4096
  %tobool48 = icmp ne i32 %and47, 0
  br i1 %tobool48, label %for.body, label %for.end

for.body:                                         ; preds = %for.cond
  %35 = load i32, ptr %c41, align 4
  %shl49 = shl i32 %35, 4
  %36 = load ptr, ptr %p.addr, align 8
  %37 = load i8, ptr %36, align 1
  %call50 = call i32 @from_hex(i8 noundef signext %37)
  %add51 = add nsw i32 %shl49, %call50
  store i32 %add51, ptr %c41, align 4
  br label %for.inc

for.inc:                                          ; preds = %for.body
  %38 = load ptr, ptr %p.addr, align 8
  %incdec.ptr52 = getelementptr inbounds i8, ptr %38, i32 1
  store ptr %incdec.ptr52, ptr %p.addr, align 8
  br label %for.cond, !llvm.loop !26

for.end:                                          ; preds = %for.cond
  %39 = load ptr, ptr %p.addr, align 8
  %40 = load ptr, ptr %new_pos.addr, align 8
  store ptr %39, ptr %40, align 8
  %41 = load i32, ptr %c41, align 4
  store i32 %41, ptr %retval, align 4
  br label %return

if.end53:                                         ; preds = %if.end31
  %42 = load ptr, ptr %p.addr, align 8
  %add.ptr = getelementptr inbounds i8, ptr %42, i64 1
  %43 = load ptr, ptr %new_pos.addr, align 8
  store ptr %add.ptr, ptr %43, align 8
  %44 = load ptr, ptr %p.addr, align 8
  %45 = load i8, ptr %44, align 1
  %conv54 = sext i8 %45 to i32
  switch i32 %conv54, label %sw.default [
    i32 97, label %sw.bb
    i32 98, label %sw.bb55
    i32 116, label %sw.bb56
    i32 110, label %sw.bb57
    i32 118, label %sw.bb58
    i32 102, label %sw.bb59
    i32 114, label %sw.bb60
    i32 101, label %sw.bb61
  ]

sw.bb:                                            ; preds = %if.end53
  store i32 7, ptr %retval, align 4
  br label %return

sw.bb55:                                          ; preds = %if.end53
  store i32 8, ptr %retval, align 4
  br label %return

sw.bb56:                                          ; preds = %if.end53
  store i32 9, ptr %retval, align 4
  br label %return

sw.bb57:                                          ; preds = %if.end53
  store i32 10, ptr %retval, align 4
  br label %return

sw.bb58:                                          ; preds = %if.end53
  store i32 11, ptr %retval, align 4
  br label %return

sw.bb59:                                          ; preds = %if.end53
  store i32 12, ptr %retval, align 4
  br label %return

sw.bb60:                                          ; preds = %if.end53
  store i32 13, ptr %retval, align 4
  br label %return

sw.bb61:                                          ; preds = %if.end53
  store i32 27, ptr %retval, align 4
  br label %return

sw.default:                                       ; preds = %if.end53
  %46 = load ptr, ptr %p.addr, align 8
  %47 = load i8, ptr %46, align 1
  %conv62 = sext i8 %47 to i32
  store i32 %conv62, ptr %retval, align 4
  br label %return

return:                                           ; preds = %sw.default, %sw.bb61, %sw.bb60, %sw.bb59, %sw.bb58, %sw.bb57, %sw.bb56, %sw.bb55, %sw.bb, %for.end, %if.end30
  %48 = load i32, ptr %retval, align 4
  ret i32 %48
}