; Function Attrs: nounwind uwtable
define internal fastcc i32 @read_escaped_char(ptr nocapture noundef writeonly %new_pos, ptr noundef %p) unnamed_addr #4 {
entry:
  %0 = load i8, ptr %p, align 1
  %1 = and i8 %0, -8
  %or.cond = icmp eq i8 %1, 48
  br i1 %or.cond, label %if.then, label %if.end31

if.then:                                          ; preds = %entry
  %incdec.ptr = getelementptr inbounds i8, ptr %p, i64 1
  %narrow = add nsw i8 %0, -48
  %sub = zext nneg i8 %narrow to i32
  %2 = load i8, ptr %incdec.ptr, align 1
  %3 = and i8 %2, -8
  %or.cond28 = icmp eq i8 %3, 48
  br i1 %or.cond28, label %if.then13, label %if.end30

if.then13:                                        ; preds = %if.then
  %shl = shl nuw nsw i32 %sub, 3
  %incdec.ptr14 = getelementptr inbounds i8, ptr %p, i64 2
  %narrow26 = add nsw i8 %2, -48
  %sub16 = zext nneg i8 %narrow26 to i32
  %add = or disjoint i32 %shl, %sub16
  %4 = load i8, ptr %incdec.ptr14, align 1
  %5 = and i8 %4, -8
  %or.cond29 = icmp eq i8 %5, 48
  br i1 %or.cond29, label %if.then24, label %if.end30

if.then24:                                        ; preds = %if.then13
  %shl25 = shl nuw nsw i32 %add, 3
  %incdec.ptr26 = getelementptr inbounds i8, ptr %p, i64 3
  %narrow27 = add nsw i8 %4, -48
  %sub28 = zext nneg i8 %narrow27 to i32
  %add29 = or disjoint i32 %shl25, %sub28
  br label %if.end30

if.end30:                                         ; preds = %if.then13, %if.then24, %if.then
  %p.addr.0 = phi ptr [ %incdec.ptr26, %if.then24 ], [ %incdec.ptr14, %if.then13 ], [ %incdec.ptr, %if.then ]
  %c.0 = phi i32 [ %add29, %if.then24 ], [ %add, %if.then13 ], [ %sub, %if.then ]
  store ptr %p.addr.0, ptr %new_pos, align 8
  br label %return

if.end31:                                         ; preds = %entry
  %cmp33 = icmp eq i8 %0, 120
  %incdec.ptr36 = getelementptr inbounds i8, ptr %p, i64 1
  br i1 %cmp33, label %if.then35, label %if.end53

if.then35:                                        ; preds = %if.end31
  %call = tail call ptr @__ctype_b_loc() #28
  %6 = load ptr, ptr %call, align 8
  %7 = load i8, ptr %incdec.ptr36, align 1
  %idxprom = sext i8 %7 to i64
  %arrayidx = getelementptr inbounds i16, ptr %6, i64 %idxprom
  %8 = load i16, ptr %arrayidx, align 2
  %9 = and i16 %8, 4096
  %tobool.not = icmp eq i16 %9, 0
  br i1 %tobool.not, label %if.then39, label %for.body

if.then39:                                        ; preds = %if.then35
  tail call void (ptr, ptr, ...) @error_at(ptr noundef nonnull %incdec.ptr36, ptr noundef nonnull @.str.83) #26
  unreachable

for.body:                                         ; preds = %if.then35, %for.body
  %10 = phi i8 [ %13, %for.body ], [ %7, %if.then35 ]
  %c41.034 = phi i32 [ %add51, %for.body ], [ 0, %if.then35 ]
  %p.addr.133 = phi ptr [ %incdec.ptr52, %for.body ], [ %incdec.ptr36, %if.then35 ]
  %shl49 = shl i32 %c41.034, 4
  %conv.i = sext i8 %10 to i32
  %11 = add i8 %10, -48
  %or.cond.i = icmp ult i8 %11, 10
  %12 = add i8 %10, -97
  %or.cond1.i = icmp ult i8 %12, 6
  %..i = select i1 %or.cond1.i, i32 -87, i32 -55
  %.sink.i = select i1 %or.cond.i, i32 -48, i32 %..i
  %add19.i = add i32 %shl49, %conv.i
  %add51 = add i32 %add19.i, %.sink.i
  %incdec.ptr52 = getelementptr inbounds i8, ptr %p.addr.133, i64 1
  %13 = load i8, ptr %incdec.ptr52, align 1
  %idxprom44 = sext i8 %13 to i64
  %arrayidx45 = getelementptr inbounds i16, ptr %6, i64 %idxprom44
  %14 = load i16, ptr %arrayidx45, align 2
  %15 = and i16 %14, 4096
  %tobool48.not = icmp eq i16 %15, 0
  br i1 %tobool48.not, label %for.end, label %for.body, !llvm.loop !25

for.end:                                          ; preds = %for.body
  store ptr %incdec.ptr52, ptr %new_pos, align 8
  br label %return

if.end53:                                         ; preds = %if.end31
  store ptr %incdec.ptr36, ptr %new_pos, align 8
  %16 = load i8, ptr %p, align 1
  switch i8 %16, label %sw.default [
    i8 97, label %return
    i8 98, label %sw.bb55
    i8 116, label %sw.bb56
    i8 110, label %sw.bb57
    i8 118, label %sw.bb58
    i8 102, label %sw.bb59
    i8 114, label %sw.bb60
    i8 101, label %sw.bb61
  ]

sw.bb55:                                          ; preds = %if.end53
  br label %return

sw.bb56:                                          ; preds = %if.end53
  br label %return

sw.bb57:                                          ; preds = %if.end53
  br label %return

sw.bb58:                                          ; preds = %if.end53
  br label %return

sw.bb59:                                          ; preds = %if.end53
  br label %return

sw.bb60:                                          ; preds = %if.end53
  br label %return

sw.bb61:                                          ; preds = %if.end53
  br label %return

sw.default:                                       ; preds = %if.end53
  %conv54 = sext i8 %16 to i32
  br label %return

return:                                           ; preds = %if.end53, %sw.default, %sw.bb61, %sw.bb60, %sw.bb59, %sw.bb58, %sw.bb57, %sw.bb56, %sw.bb55, %for.end, %if.end30
  %retval.0 = phi i32 [ %c.0, %if.end30 ], [ %add51, %for.end ], [ %conv54, %sw.default ], [ 27, %sw.bb61 ], [ 13, %sw.bb60 ], [ 12, %sw.bb59 ], [ 11, %sw.bb58 ], [ 10, %sw.bb57 ], [ 9, %sw.bb56 ], [ 8, %sw.bb55 ], [ 7, %if.end53 ]
  ret i32 %retval.0
}